target datalayout = "e-m:e-p270:32:32-p271:32:32-p272:64:64-i64:64-i128:128-f80:128-n8:16:32:64-S128"
target triple = "x86_64-pc-linux-gnu"

%"class.std::__shared_count" = type { ptr }
%"class.cv::bioinspired::RetinaImpl" = type <{ %"class.cv::bioinspired::Retina", %"struct.cv::bioinspired::RetinaParameters", %"class.std::valarray", %"struct.cv::Ptr.4", i8, [7 x i8] }>
%"class.cv::bioinspired::Retina" = type { %"class.cv::Algorithm" }
%"class.cv::Algorithm" = type { ptr }
%"struct.cv::bioinspired::RetinaParameters" = type { %"struct.cv::bioinspired::RetinaParameters::OPLandIplParvoParameters", %"struct.cv::bioinspired::RetinaParameters::IplMagnoParameters" }
%"struct.cv::bioinspired::RetinaParameters::OPLandIplParvoParameters" = type { i8, i8, float, float, float, float, float, float, float }
%"struct.cv::bioinspired::RetinaParameters::IplMagnoParameters" = type { i8, float, float, float, float, float, float, float }
%"class.std::valarray" = type { i64, ptr }
%"struct.cv::Ptr.4" = type { %"class.std::shared_ptr.5" }
%"class.std::shared_ptr.5" = type { %"class.std::__shared_ptr.6" }
%"class.std::__shared_ptr.6" = type { ptr, %"class.std::__shared_count" }
%"class.cv::bioinspired::RetinaFilter" = type <{ i8, i8, [2 x i8], i32, i32, [4 x i8], %"class.std::valarray", %"class.std::valarray", %"class.cv::bioinspired::BasicRetinaFilter", %"class.cv::bioinspired::ParvoRetinaFilter", %"class.cv::bioinspired::MagnoRetinaFilter", %"class.cv::bioinspired::RetinaColor", ptr, i8, i8, i8, i8, float, i8, [7 x i8] }>
%"class.cv::bioinspired::BasicRetinaFilter" = type { %"class.cv::bioinspired::TemplateBuffer", %"class.std::valarray", i32, i32, %"class.std::valarray", %"class.std::valarray", %"class.std::valarray", float, float, float, float, float, float, float, float }
%"class.cv::bioinspired::TemplateBuffer" = type { ptr, %"class.std::valarray", i64, i64, i64, i64, i64 }
%"class.cv::bioinspired::ParvoRetinaFilter" = type { ptr, %"class.cv::bioinspired::BasicRetinaFilter", %"class.std::valarray", %"class.std::valarray", %"class.std::valarray", %"class.std::valarray", %"class.std::valarray", %"class.std::valarray", %"class.std::valarray", ptr, ptr }
%"class.cv::bioinspired::MagnoRetinaFilter" = type <{ ptr, %"class.cv::bioinspired::BasicRetinaFilter", %"class.std::valarray", %"class.std::valarray", %"class.std::valarray", %"class.std::valarray", %"class.std::valarray", %"class.std::valarray", %"class.std::valarray", %"class.std::valarray", ptr, ptr, float, [4 x i8] }>
%"class.cv::bioinspired::RetinaColor" = type <{ ptr, %"class.cv::bioinspired::BasicRetinaFilter", i32, i8, [3 x i8], float, [4 x i8], ptr, ptr, %"class.std::valarray.8", %"class.std::valarray", %"class.std::valarray", %"class.std::valarray", %"class.std::valarray", %"class.std::valarray", %"class.std::valarray", %"class.std::valarray", float, float, float, i8, [3 x i8] }>
%"class.std::valarray.8" = type { i64, ptr }

; Function Attrs: mustprogress nounwind uwtable
define linkonce_odr hidden void @_ZN2cv11bioinspired17BasicRetinaFilter25setV0CompressionParameterEf(ptr noundef nonnull align 8 dereferenceable(168) %0, float noundef %1) #9 comdat align 2 {
  %3 = alloca ptr, align 8
  %4 = alloca float, align 4
  store ptr %0, ptr %3, align 8, !tbaa !196
  store float %1, ptr %4, align 4, !tbaa !16
  %5 = load ptr, ptr %3, align 8
  %6 = load float, ptr %4, align 4, !tbaa !16
  %7 = getelementptr inbounds nuw %"class.cv::bioinspired::BasicRetinaFilter", ptr %5, i32 0, i32 8
  %8 = load float, ptr %7, align 4, !tbaa !205
  %9 = fmul float %6, %8
  %10 = getelementptr inbounds nuw %"class.cv::bioinspired::BasicRetinaFilter", ptr %5, i32 0, i32 7
  store float %9, ptr %10, align 8, !tbaa !206
  %11 = load float, ptr %4, align 4, !tbaa !16
  %12 = getelementptr inbounds nuw %"class.cv::bioinspired::BasicRetinaFilter", ptr %5, i32 0, i32 10
  store float %11, ptr %12, align 4, !tbaa !207
  %13 = getelementptr inbounds nuw %"class.cv::bioinspired::BasicRetinaFilter", ptr %5, i32 0, i32 8
  %14 = load float, ptr %13, align 4, !tbaa !205
  %15 = load float, ptr %4, align 4, !tbaa !16
  %16 = fsub float 1.000000e+00, %15
  %17 = fmul float %14, %16
  %18 = getelementptr inbounds nuw %"class.cv::bioinspired::BasicRetinaFilter", ptr %5, i32 0, i32 11
  store float %17, ptr %18, align 8, !tbaa !208
  ret void
}

; Function Attrs: mustprogress nounwind uwtable
define linkonce_odr hidden noundef ptr @_ZNKSt12__shared_ptrIN2cv11bioinspired12RetinaFilterELN9__gnu_cxx12_Lock_policyE2EE3getEv(ptr noundef nonnull align 8 dereferenceable(16) %0) #9 comdat align 2 {
  %2 = alloca ptr, align 8
  store ptr %0, ptr %2, align 8, !tbaa !281
  %3 = load ptr, ptr %2, align 8
  %4 = getelementptr inbounds nuw %"class.std::__shared_ptr.6", ptr %3, i32 0, i32 0
  %5 = load ptr, ptr %4, align 8, !tbaa !283
  ret ptr %5
}

; Function Attrs: inlinehint mustprogress nounwind uwtable
define linkonce_odr hidden void @_ZN2cv11bioinspired12RetinaFilter45activateNormalizeMagnoOutput_0_maxOutputValueEb(ptr noundef nonnull align 8 dereferenceable(1217) %0, i1 noundef zeroext %1) #7 comdat align 2 {
  %3 = alloca ptr, align 8
  %4 = alloca i8, align 1
  store ptr %0, ptr %3, align 8, !tbaa !61
  %5 = zext i1 %1 to i8
  store i8 %5, ptr %4, align 1, !tbaa !12
  %6 = load ptr, ptr %3, align 8
  %7 = load i8, ptr %4, align 1, !tbaa !12, !range !57, !noundef !58
  %8 = trunc i8 %7 to i1
  %9 = getelementptr inbounds nuw %"class.cv::bioinspired::RetinaFilter", ptr %6, i32 0, i32 15
  %10 = zext i1 %8 to i8
  store i8 %10, ptr %9, align 2, !tbaa !114
  ret void
}

; Function Attrs: mustprogress uwtable
define linkonce_odr hidden void @_ZN2cv11bioinspired12RetinaFilter25setMagnoCoefficientsTableEfffffff(ptr noundef nonnull align 8 dereferenceable(1217) %0, float noundef %1, float noundef %2, float noundef %3, float noundef %4, float noundef %5, float noundef %6, float noundef %7) #4 comdat align 2 {
  %9 = alloca ptr, align 8
  %10 = alloca float, align 4
  %11 = alloca float, align 4
  %12 = alloca float, align 4
  %13 = alloca float, align 4
  %14 = alloca float, align 4
  %15 = alloca float, align 4
  %16 = alloca float, align 4
  store ptr %0, ptr %9, align 8, !tbaa !61
  store float %1, ptr %10, align 4, !tbaa !16
  store float %2, ptr %11, align 4, !tbaa !16
  store float %3, ptr %12, align 4, !tbaa !16
  store float %4, ptr %13, align 4, !tbaa !16
  store float %5, ptr %14, align 4, !tbaa !16
  store float %6, ptr %15, align 4, !tbaa !16
  store float %7, ptr %16, align 4, !tbaa !16
  %17 = load ptr, ptr %9, align 8
  %18 = getelementptr inbounds nuw %"class.cv::bioinspired::RetinaFilter", ptr %17, i32 0, i32 10
  %19 = load float, ptr %10, align 4, !tbaa !16
  %20 = load float, ptr %11, align 4, !tbaa !16
  %21 = load float, ptr %12, align 4, !tbaa !16
  %22 = load float, ptr %13, align 4, !tbaa !16
  %23 = load float, ptr %15, align 4, !tbaa !16
  %24 = load float, ptr %16, align 4, !tbaa !16
  call void @_ZN2cv11bioinspired17MagnoRetinaFilter20setCoefficientsTableEffffff(ptr noundef nonnull align 8 dereferenceable(324) %18, float noundef %19, float noundef %20, float noundef %21, float noundef %22, float noundef %23, float noundef %24)
  %25 = getelementptr inbounds nuw %"class.cv::bioinspired::RetinaFilter", ptr %17, i32 0, i32 10
  %26 = getelementptr inbounds i8, ptr %25, i64 8
  %27 = load float, ptr %14, align 4, !tbaa !16
  call void @_ZN2cv11bioinspired17BasicRetinaFilter25setV0CompressionParameterEf(ptr noundef nonnull align 8 dereferenceable(168) %26, float noundef %27)
  call void @_ZN2cv11bioinspired12RetinaFilter19_setInitPeriodCountEv(ptr noundef nonnull align 8 dereferenceable(1217) %17)
  ret void
}

; Function Attrs: mustprogress nounwind uwtable
define linkonce_odr hidden noundef ptr @_ZNK2cv3PtrINS_11bioinspired12RetinaFilterEEptEv(ptr noundef nonnull align 8 dereferenceable(16) %0) #9 comdat align 2 {
  %2 = alloca ptr, align 8
  store ptr %0, ptr %2, align 8, !tbaa !39
  %3 = load ptr, ptr %2, align 8
  %4 = call noundef ptr @_ZNKSt12__shared_ptrIN2cv11bioinspired12RetinaFilterELN9__gnu_cxx12_Lock_policyE2EE3getEv(ptr noundef nonnull align 8 dereferenceable(16) %3) #3
  ret ptr %4
}

; Function Attrs: mustprogress uwtable
define hidden void @_ZN2cv11bioinspired10RetinaImpl20setupIPLMagnoChannelEbfffffff(ptr noundef nonnull align 8 dereferenceable(112) %0, i1 noundef zeroext %1, float noundef %2, float noundef %3, float noundef %4, float noundef %5, float noundef %6, float noundef %7, float noundef %8) unnamed_addr #4 align 2 {
  %10 = alloca ptr, align 8
  %11 = alloca i8, align 1
  %12 = alloca float, align 4
  %13 = alloca float, align 4
  %14 = alloca float, align 4
  %15 = alloca float, align 4
  %16 = alloca float, align 4
  %17 = alloca float, align 4
  %18 = alloca float, align 4
  store ptr %0, ptr %10, align 8, !tbaa !24
  %19 = zext i1 %1 to i8
  store i8 %19, ptr %11, align 1, !tbaa !12
  store float %2, ptr %12, align 4, !tbaa !16
  store float %3, ptr %13, align 4, !tbaa !16
  store float %4, ptr %14, align 4, !tbaa !16
  store float %5, ptr %15, align 4, !tbaa !16
  store float %6, ptr %16, align 4, !tbaa !16
  store float %7, ptr %17, align 4, !tbaa !16
  store float %8, ptr %18, align 4, !tbaa !16
  %20 = load ptr, ptr %10, align 8
  %21 = getelementptr inbounds nuw %"class.cv::bioinspired::RetinaImpl", ptr %20, i32 0, i32 3
  %22 = call noundef ptr @_ZNK2cv3PtrINS_11bioinspired12RetinaFilterEEptEv(ptr noundef nonnull align 8 dereferenceable(16) %21) #3
  %23 = load float, ptr %12, align 4, !tbaa !16
  %24 = load float, ptr %13, align 4, !tbaa !16
  %25 = load float, ptr %14, align 4, !tbaa !16
  %26 = load float, ptr %15, align 4, !tbaa !16
  %27 = load float, ptr %16, align 4, !tbaa !16
  %28 = load float, ptr %17, align 4, !tbaa !16
  %29 = load float, ptr %18, align 4, !tbaa !16
  call void @_ZN2cv11bioinspired12RetinaFilter25setMagnoCoefficientsTableEfffffff(ptr noundef nonnull align 8 dereferenceable(1217) %22, float noundef %23, float noundef %24, float noundef %25, float noundef %26, float noundef %27, float noundef %28, float noundef %29)
  %30 = getelementptr inbounds nuw %"class.cv::bioinspired::RetinaImpl", ptr %20, i32 0, i32 3
  %31 = call noundef ptr @_ZNK2cv3PtrINS_11bioinspired12RetinaFilterEEptEv(ptr noundef nonnull align 8 dereferenceable(16) %30) #3
  %32 = load i8, ptr %11, align 1, !tbaa !12, !range !57, !noundef !58
  %33 = trunc i8 %32 to i1
  call void @_ZN2cv11bioinspired12RetinaFilter45activateNormalizeMagnoOutput_0_maxOutputValueEb(ptr noundef nonnull align 8 dereferenceable(1217) %31, i1 noundef zeroext %33)
  %34 = load i8, ptr %11, align 1, !tbaa !12, !range !57, !noundef !58
  %35 = trunc i8 %34 to i1
  %36 = getelementptr inbounds nuw %"class.cv::bioinspired::RetinaImpl", ptr %20, i32 0, i32 1
  %37 = getelementptr inbounds nuw %"struct.cv::bioinspired::RetinaParameters", ptr %36, i32 0, i32 1
  %38 = getelementptr inbounds nuw %"struct.cv::bioinspired::RetinaParameters::IplMagnoParameters", ptr %37, i32 0, i32 0
  %39 = zext i1 %35 to i8
  store i8 %39, ptr %38, align 8, !tbaa !86
  %40 = load float, ptr %12, align 4, !tbaa !16
  %41 = getelementptr inbounds nuw %"class.cv::bioinspired::RetinaImpl", ptr %20, i32 0, i32 1
  %42 = getelementptr inbounds nuw %"struct.cv::bioinspired::RetinaParameters", ptr %41, i32 0, i32 1
  %43 = getelementptr inbounds nuw %"struct.cv::bioinspired::RetinaParameters::IplMagnoParameters", ptr %42, i32 0, i32 1
  store float %40, ptr %43, align 4, !tbaa !87
  %44 = load float, ptr %13, align 4, !tbaa !16
  %45 = getelementptr inbounds nuw %"class.cv::bioinspired::RetinaImpl", ptr %20, i32 0, i32 1
  %46 = getelementptr inbounds nuw %"struct.cv::bioinspired::RetinaParameters", ptr %45, i32 0, i32 1
  %47 = getelementptr inbounds nuw %"struct.cv::bioinspired::RetinaParameters::IplMagnoParameters", ptr %46, i32 0, i32 2
  store float %44, ptr %47, align 8, !tbaa !88
  %48 = load float, ptr %14, align 4, !tbaa !16
  %49 = getelementptr inbounds nuw %"class.cv::bioinspired::RetinaImpl", ptr %20, i32 0, i32 1
  %50 = getelementptr inbounds nuw %"struct.cv::bioinspired::RetinaParameters", ptr %49, i32 0, i32 1
  %51 = getelementptr inbounds nuw %"struct.cv::bioinspired::RetinaParameters::IplMagnoParameters", ptr %50, i32 0, i32 3
  store float %48, ptr %51, align 4, !tbaa !89
  %52 = load float, ptr %15, align 4, !tbaa !16
  %53 = getelementptr inbounds nuw %"class.cv::bioinspired::RetinaImpl", ptr %20, i32 0, i32 1
  %54 = getelementptr inbounds nuw %"struct.cv::bioinspired::RetinaParameters", ptr %53, i32 0, i32 1
  %55 = getelementptr inbounds nuw %"struct.cv::bioinspired::RetinaParameters::IplMagnoParameters", ptr %54, i32 0, i32 4
  store float %52, ptr %55, align 8, !tbaa !90
  %56 = load float, ptr %16, align 4, !tbaa !16
  %57 = getelementptr inbounds nuw %"class.cv::bioinspired::RetinaImpl", ptr %20, i32 0, i32 1
  %58 = getelementptr inbounds nuw %"struct.cv::bioinspired::RetinaParameters", ptr %57, i32 0, i32 1
  %59 = getelementptr inbounds nuw %"struct.cv::bioinspired::RetinaParameters::IplMagnoParameters", ptr %58, i32 0, i32 5
  store float %56, ptr %59, align 4, !tbaa !91
  %60 = load float, ptr %17, align 4, !tbaa !16
  %61 = getelementptr inbounds nuw %"class.cv::bioinspired::RetinaImpl", ptr %20, i32 0, i32 1
  %62 = getelementptr inbounds nuw %"struct.cv::bioinspired::RetinaParameters", ptr %61, i32 0, i32 1
  %63 = getelementptr inbounds nuw %"struct.cv::bioinspired::RetinaParameters::IplMagnoParameters", ptr %62, i32 0, i32 6
  store float %60, ptr %63, align 8, !tbaa !92
  %64 = load float, ptr %18, align 4, !tbaa !16
  %65 = getelementptr inbounds nuw %"class.cv::bioinspired::RetinaImpl", ptr %20, i32 0, i32 1
  %66 = getelementptr inbounds nuw %"struct.cv::bioinspired::RetinaParameters", ptr %65, i32 0, i32 1
  %67 = getelementptr inbounds nuw %"struct.cv::bioinspired::RetinaParameters::IplMagnoParameters", ptr %66, i32 0, i32 7
  store float %64, ptr %67, align 4, !tbaa !93
  ret void
}