; Function Attrs: mustprogress uwtable
define hidden void @_ZN2cv11bioinspired10RetinaImpl20setupIPLMagnoChannelEbfffffff(ptr noundef nonnull align 8 captures(none) dereferenceable(112) initializes((40, 41), (44, 72)) %0, i1 noundef zeroext %1, float noundef %2, float noundef %3, float noundef %4, float noundef %5, float noundef %6, float noundef %7, float noundef %8) unnamed_addr #3 align 2 {
  %10 = zext i1 %1 to i8
  %11 = getelementptr inbounds nuw i8, ptr %0, i64 88
  %12 = load ptr, ptr %11, align 8, !tbaa !70
  %13 = getelementptr inbounds nuw i8, ptr %12, i64 520
  tail call void @_ZN2cv11bioinspired17MagnoRetinaFilter20setCoefficientsTableEffffff(ptr noundef nonnull align 8 dereferenceable(324) %13, float noundef %2, float noundef %3, float noundef %4, float noundef %5, float noundef %7, float noundef %8)
  %14 = getelementptr inbounds nuw i8, ptr %12, i64 668
  %15 = load float, ptr %14, align 4, !tbaa !104
  %16 = fmul float %6, %15
  %17 = getelementptr inbounds nuw i8, ptr %12, i64 664
  store float %16, ptr %17, align 8, !tbaa !105
  %18 = getelementptr inbounds nuw i8, ptr %12, i64 676
  store float %6, ptr %18, align 4, !tbaa !106
  %19 = fsub float 1.000000e+00, %6
  %20 = fmul float %19, %15
  %21 = getelementptr inbounds nuw i8, ptr %12, i64 680
  store float %20, ptr %21, align 8, !tbaa !107
  tail call void @_ZN2cv11bioinspired12RetinaFilter19_setInitPeriodCountEv(ptr noundef nonnull align 8 dereferenceable(1217) %12)
  %22 = load ptr, ptr %11, align 8, !tbaa !70
  %23 = getelementptr inbounds nuw i8, ptr %22, i64 1210
  store i8 %10, ptr %23, align 2, !tbaa !117
  %24 = getelementptr inbounds nuw i8, ptr %0, i64 40
  store i8 %10, ptr %24, align 8, !tbaa !109
  %25 = getelementptr inbounds nuw i8, ptr %0, i64 44
  store float %2, ptr %25, align 4, !tbaa !110
  %26 = getelementptr inbounds nuw i8, ptr %0, i64 48
  store float %3, ptr %26, align 8, !tbaa !111
  %27 = getelementptr inbounds nuw i8, ptr %0, i64 52
  store float %4, ptr %27, align 4, !tbaa !112
  %28 = getelementptr inbounds nuw i8, ptr %0, i64 56
  store float %5, ptr %28, align 8, !tbaa !113
  %29 = getelementptr inbounds nuw i8, ptr %0, i64 60
  store float %6, ptr %29, align 4, !tbaa !114
  %30 = getelementptr inbounds nuw i8, ptr %0, i64 64
  store float %7, ptr %30, align 8, !tbaa !115
  %31 = getelementptr inbounds nuw i8, ptr %0, i64 68
  store float %8, ptr %31, align 4, !tbaa !116
  ret void
}